; Function Attrs: nounwind uwtable
define dso_local void @FreeSnapshotBuilder(ptr noundef captures(none) %0) local_unnamed_addr #0 {
  %2 = getelementptr inbounds nuw i8, ptr %0, i64 8
  %3 = load ptr, ptr %2, align 8
  %4 = getelementptr inbounds nuw i8, ptr %0, i64 48
  %5 = load ptr, ptr %4, align 8
  %.not = icmp eq ptr %5, null
  br i1 %.not, label %18, label %6

6:                                                ; preds = %1
  %7 = getelementptr inbounds nuw i8, ptr %5, i64 46
  %8 = load i8, ptr %7, align 2, !range !4, !noundef !5
  %9 = trunc nuw i8 %8 to i1
  br i1 %9, label %10, label %13

10:                                               ; preds = %6
  %11 = tail call zeroext i1 @errstart_cold(i32 noundef 21, ptr noundef null) #15
  tail call void @llvm.assume(i1 %11)
  %12 = tail call i32 (ptr, ...) @errmsg_internal(ptr noundef nonnull @.str.1) #14
  tail call void @errfinish(ptr noundef nonnull @.str.2, i32 noundef 344, ptr noundef nonnull @__func__.SnapBuildSnapDecRefcount) #14
  unreachable

13:                                               ; preds = %6
  %14 = getelementptr inbounds nuw i8, ptr %5, i64 64
  %15 = load i32, ptr %14, align 8
  %16 = add i32 %15, -1
  store i32 %16, ptr %14, align 8
  %17 = icmp eq i32 %16, 0
  br i1 %17, label %SnapBuildFreeSnapshot.exit.i, label %SnapBuildSnapDecRefcount.exit

SnapBuildFreeSnapshot.exit.i:                     ; preds = %13
  tail call void @pfree(ptr noundef nonnull %5) #14
  br label %SnapBuildSnapDecRefcount.exit

SnapBuildSnapDecRefcount.exit:                    ; preds = %13, %SnapBuildFreeSnapshot.exit.i
  store ptr null, ptr %4, align 8
  br label %18

18:                                               ; preds = %SnapBuildSnapDecRefcount.exit, %1
  tail call void @MemoryContextDelete(ptr noundef %3) #14
  ret void
}